	.file	"this.cpp"
	.local	_ZStL8__ioinit
	.comm	_ZStL8__ioinit,1,1
	.section	.text._ZN1AC2Ev,"axG",@progbits,_ZN1AC5Ev,comdat
	.align 2
	.weak	_ZN1AC2Ev
	.type	_ZN1AC2Ev, @function
_ZN1AC2Ev:
.LFB1022:
	.cfi_startproc
	pushq	%rbp
	.cfi_def_cfa_offset 16
	.cfi_offset 6, -16
	movq	%rsp, %rbp
	.cfi_def_cfa_register 6
	movq	%rdi, -8(%rbp)
	movq	-8(%rbp), %rax
	movl	$10000, (%rax)
	nop
	popq	%rbp
	.cfi_def_cfa 7, 8
	ret
	.cfi_endproc
.LFE1022:
	.size	_ZN1AC2Ev, .-_ZN1AC2Ev
	.weak	_ZN1AC1Ev
	.set	_ZN1AC1Ev,_ZN1AC2Ev
	.section	.text._ZN1A4showEv,"axG",@progbits,_ZN1A4showEv,comdat
	.align 2
	.weak	_ZN1A4showEv
	.type	_ZN1A4showEv, @function
_ZN1A4showEv:
.LFB1024:
	.cfi_startproc
	pushq	%rbp
	.cfi_def_cfa_offset 16
	.cfi_offset 6, -16
	movq	%rsp, %rbp
	.cfi_def_cfa_register 6
	subq	$16, %rsp
	movq	%rdi, -8(%rbp)
	movq	-8(%rbp), %rax
	movq	%rax, %rdi
	call	_Z5gshowP1A
	nop
	leave
	.cfi_def_cfa 7, 8
	ret
	.cfi_endproc
.LFE1024:
	.size	_ZN1A4showEv, .-_ZN1A4showEv
	.section	.text._ZN1A6addaddEv,"axG",@progbits,_ZN1A6addaddEv,comdat
	.align 2
	.weak	_ZN1A6addaddEv
	.type	_ZN1A6addaddEv, @function
_ZN1A6addaddEv:
.LFB1025:
	.cfi_startproc
	pushq	%rbp
	.cfi_def_cfa_offset 16
	.cfi_offset 6, -16
	movq	%rsp, %rbp
	.cfi_def_cfa_register 6
	movq	%rdi, -8(%rbp)
	movq	-8(%rbp), %rax
	movl	(%rax), %eax
	leal	1(%rax), %edx
	movq	-8(%rbp), %rax
	movl	%edx, (%rax)
	movq	-8(%rbp), %rax
	popq	%rbp
	.cfi_def_cfa 7, 8
	ret
	.cfi_endproc
.LFE1025:
	.size	_ZN1A6addaddEv, .-_ZN1A6addaddEv
	.section	.rodata
.LC0:
	.string	"data="
	.text
	.globl	_Z5gshowP1A
	.type	_Z5gshowP1A, @function
_Z5gshowP1A:
.LFB1026:
	.cfi_startproc
	pushq	%rbp
	.cfi_def_cfa_offset 16
	.cfi_offset 6, -16
	movq	%rsp, %rbp
	.cfi_def_cfa_register 6
	pushq	%rbx
	subq	$24, %rsp
	.cfi_offset 3, -24
	movq	%rdi, -24(%rbp)
	movq	-24(%rbp), %rax
	movl	(%rax), %ebx
	movl	$.LC0, %esi
	movl	$_ZSt4cout, %edi
	call	_ZStlsISt11char_traitsIcEERSt13basic_ostreamIcT_ES5_PKc
	movl	%ebx, %esi
	movq	%rax, %rdi
	call	_ZNSolsEi
	movl	$_ZSt4endlIcSt11char_traitsIcEERSt13basic_ostreamIT_T0_ES6_, %esi
	movq	%rax, %rdi
	call	_ZNSolsEPFRSoS_E
	nop
	addq	$24, %rsp
	popq	%rbx
	popq	%rbp
	.cfi_def_cfa 7, 8
	ret
	.cfi_endproc
.LFE1026:
	.size	_Z5gshowP1A, .-_Z5gshowP1A
	.globl	main
	.type	main, @function
main:
.LFB1027:
	.cfi_startproc
	pushq	%rbp
	.cfi_def_cfa_offset 16
	.cfi_offset 6, -16
	movq	%rsp, %rbp
	.cfi_def_cfa_register 6
	subq	$16, %rsp
	movq	%fs:40, %rax
	movq	%rax, -8(%rbp)
	xorl	%eax, %eax
	leaq	-16(%rbp), %rax
	movq	%rax, %rdi
	call	_ZN1AC1Ev
	leaq	-16(%rbp), %rax
	movq	%rax, %rdi
	call	_ZN1A4showEv
	leaq	-16(%rbp), %rax
	movq	%rax, %rdi
	call	_ZN1A6addaddEv
	movq	%rax, %rdi
	call	_ZN1A6addaddEv
	movq	%rax, %rdi
	call	_ZN1A6addaddEv
	leaq	-16(%rbp), %rax
	movq	%rax, %rdi
	call	_ZN1A4showEv
	movl	$0, %eax
	movq	-8(%rbp), %rdx
	xorq	%fs:40, %rdx
	je	.L8
	call	__stack_chk_fail
.L8:
	leave
	.cfi_def_cfa 7, 8
	ret
	.cfi_endproc
.LFE1027:
	.size	main, .-main
	.type	_Z41__static_initialization_and_destruction_0ii, @function
_Z41__static_initialization_and_destruction_0ii:
.LFB1036:
	.cfi_startproc
	pushq	%rbp
	.cfi_def_cfa_offset 16
	.cfi_offset 6, -16
	movq	%rsp, %rbp
	.cfi_def_cfa_register 6
	subq	$16, %rsp
	movl	%edi, -4(%rbp)
	movl	%esi, -8(%rbp)
	cmpl	$1, -4(%rbp)
	jne	.L11
	cmpl	$65535, -8(%rbp)
	jne	.L11
	movl	$_ZStL8__ioinit, %edi
	call	_ZNSt8ios_base4InitC1Ev
	movl	$__dso_handle, %edx
	movl	$_ZStL8__ioinit, %esi
	movl	$_ZNSt8ios_base4InitD1Ev, %edi
	call	__cxa_atexit
.L11:
	nop
	leave
	.cfi_def_cfa 7, 8
	ret
	.cfi_endproc
.LFE1036:
	.size	_Z41__static_initialization_and_destruction_0ii, .-_Z41__static_initialization_and_destruction_0ii
	.type	_GLOBAL__sub_I__Z5gshowP1A, @function
_GLOBAL__sub_I__Z5gshowP1A:
.LFB1037:
	.cfi_startproc
	pushq	%rbp
	.cfi_def_cfa_offset 16
	.cfi_offset 6, -16
	movq	%rsp, %rbp
	.cfi_def_cfa_register 6
	movl	$65535, %esi
	movl	$1, %edi
	call	_Z41__static_initialization_and_destruction_0ii
	popq	%rbp
	.cfi_def_cfa 7, 8
	ret
	.cfi_endproc
.LFE1037:
	.size	_GLOBAL__sub_I__Z5gshowP1A, .-_GLOBAL__sub_I__Z5gshowP1A
	.section	.init_array,"aw"
	.align 8
	.quad	_GLOBAL__sub_I__Z5gshowP1A
	.hidden	__dso_handle
	.ident	"GCC: (Ubuntu 5.4.0-6ubuntu1~16.04.12) 5.4.0 20160609"
	.section	.note.GNU-stack,"",@progbits
